; Function Attrs: nounwind uwtable
define internal fastcc void @g_iofile(ptr noundef %0, ptr noundef %1, ptr noundef readonly captures(none) %2) unnamed_addr #0 {
  %4 = tail call i32 @lua_type(ptr noundef %0, i32 noundef 1) #9
  %5 = icmp slt i32 %4, 1
  br i1 %5, label %25, label %6

6:                                                ; preds = %3
  %7 = tail call ptr @lua_tolstring(ptr noundef %0, i32 noundef 1, ptr noundef null) #9
  %.not = icmp eq ptr %7, null
  br i1 %.not, label %18, label %8

8:                                                ; preds = %6
  %9 = tail call ptr @lua_newuserdatauv(ptr noundef %0, i64 noundef 16, i32 noundef 0) #9
  %10 = getelementptr inbounds nuw i8, ptr %9, i64 8
  store ptr null, ptr %10, align 8, !tbaa !9
  tail call void @luaL_setmetatable(ptr noundef %0, ptr noundef nonnull @.str.16) #9
  store ptr null, ptr %9, align 8, !tbaa !11
  store ptr @io_fclose, ptr %10, align 8, !tbaa !9
  %11 = tail call noalias ptr @fopen64(ptr noundef nonnull %7, ptr noundef readonly %2)
  store ptr %11, ptr %9, align 8, !tbaa !11
  %12 = icmp eq ptr %11, null
  br i1 %12, label %13, label %opencheck.exit, !prof !12

13:                                               ; preds = %8
  %14 = tail call ptr @__errno_location() #10
  %15 = load i32, ptr %14, align 4, !tbaa !14
  %16 = tail call ptr @strerror(i32 noundef %15) #9
  %17 = tail call i32 (ptr, ptr, ...) @luaL_error(ptr noundef %0, ptr noundef nonnull @.str.20, ptr noundef nonnull %7, ptr noundef %16) #9
  br label %opencheck.exit

18:                                               ; preds = %6
  %19 = tail call ptr @luaL_checkudata(ptr noundef %0, i32 noundef 1, ptr noundef nonnull @.str.16) #9
  %20 = getelementptr inbounds nuw i8, ptr %19, i64 8
  %21 = load ptr, ptr %20, align 8, !tbaa !9
  %22 = icmp eq ptr %21, null
  br i1 %22, label %23, label %tofile.exit, !prof !12

23:                                               ; preds = %18
  %24 = tail call i32 (ptr, ptr, ...) @luaL_error(ptr noundef %0, ptr noundef nonnull @.str.17) #9
  br label %tofile.exit

tofile.exit:                                      ; preds = %18, %23
  tail call void @lua_pushvalue(ptr noundef %0, i32 noundef 1) #9
  br label %opencheck.exit

opencheck.exit:                                   ; preds = %13, %8, %tofile.exit
  tail call void @lua_setfield(ptr noundef %0, i32 noundef -1001000, ptr noundef %1) #9
  br label %25

25:                                               ; preds = %opencheck.exit, %3
  %26 = tail call i32 @lua_getfield(ptr noundef %0, i32 noundef -1001000, ptr noundef %1) #9
  ret void
}